; Function Attrs: mustprogress nounwind uwtable
define hidden void @_ZN4cvc58internal3smt19InterpolationSolverD2Ev(ptr noundef nonnull align 8 captures(none) dereferenceable(32) initializes((0, 8)) %0) unnamed_addr #4 align 2 personality ptr @__gxx_personality_v0 {
  store ptr getelementptr inbounds nuw inrange(-16, 16) (i8, ptr @_ZTVN4cvc58internal3smt19InterpolationSolverE, i64 16), ptr %0, align 8, !tbaa !3
  %2 = getelementptr inbounds nuw i8, ptr %0, i64 24
  %3 = load ptr, ptr %2, align 8, !tbaa !15
  %4 = load i64, ptr %3, align 8
  %5 = and i64 %4, 1152920405095219200
  %.not.i.i = icmp eq i64 %5, 1152920405095219200
  br i1 %.not.i.i, label %_ZN4cvc58internal12NodeTemplateILb1EED2Ev.exit, label %6, !prof !17

6:                                                ; preds = %1
  %7 = add i64 %4, 1152920405095219200
  %8 = and i64 %7, 1152920405095219200
  %9 = and i64 %4, -1152920405095219201
  %10 = or disjoint i64 %8, %9
  store i64 %10, ptr %3, align 8
  %11 = icmp eq i64 %8, 0
  br i1 %11, label %12, label %_ZN4cvc58internal12NodeTemplateILb1EED2Ev.exit, !prof !17

12:                                               ; preds = %6
  invoke void @_ZN4cvc58internal4expr9NodeValue15markForDeletionEv(ptr noundef nonnull align 8 dereferenceable(24) %3)
          to label %_ZN4cvc58internal12NodeTemplateILb1EED2Ev.exit unwind label %13

13:                                               ; preds = %12
  %14 = landingpad { ptr, i32 }
          catch ptr null
  %15 = extractvalue { ptr, i32 } %14, 0
  tail call void @__clang_call_terminate(ptr %15) #24
  unreachable

_ZN4cvc58internal12NodeTemplateILb1EED2Ev.exit:   ; preds = %1, %6, %12
  %16 = getelementptr inbounds nuw i8, ptr %0, i64 16
  %17 = load ptr, ptr %16, align 8, !tbaa !14
  %.not.i = icmp eq ptr %17, null
  br i1 %.not.i, label %_ZNSt10unique_ptrIN4cvc58internal6theory11quantifiers13SygusInterpolESt14default_deleteIS4_EED2Ev.exit, label %_ZNKSt14default_deleteIN4cvc58internal6theory11quantifiers13SygusInterpolEEclEPS4_.exit.i

_ZNKSt14default_deleteIN4cvc58internal6theory11quantifiers13SygusInterpolEEclEPS4_.exit.i: ; preds = %_ZN4cvc58internal12NodeTemplateILb1EED2Ev.exit
  %18 = load ptr, ptr %17, align 8, !tbaa !3
  %19 = getelementptr inbounds nuw i8, ptr %18, i64 8
  %20 = load ptr, ptr %19, align 8
  tail call void %20(ptr noundef nonnull align 8 dereferenceable(248) %17) #22
  br label %_ZNSt10unique_ptrIN4cvc58internal6theory11quantifiers13SygusInterpolESt14default_deleteIS4_EED2Ev.exit

_ZNSt10unique_ptrIN4cvc58internal6theory11quantifiers13SygusInterpolESt14default_deleteIS4_EED2Ev.exit: ; preds = %_ZN4cvc58internal12NodeTemplateILb1EED2Ev.exit, %_ZNKSt14default_deleteIN4cvc58internal6theory11quantifiers13SygusInterpolEEclEPS4_.exit.i
  store ptr null, ptr %16, align 8, !tbaa !14
  ret void
}